; Function Attrs: mustprogress uwtable
define noundef zeroext i1 @_ZN4pkpy8Compiler13is_expressionEb(ptr noundef nonnull readonly align 8 captures(none) dereferenceable(200) %0, i1 noundef zeroext %1) local_unnamed_addr #5 align 2 {
  %3 = getelementptr inbounds nuw i8, ptr %0, i64 176
  %4 = getelementptr inbounds nuw i8, ptr %0, i64 172
  %5 = load i32, ptr %4, align 4
  %6 = sext i32 %5 to i64
  %7 = getelementptr inbounds nuw i8, ptr %0, i64 184
  %8 = load ptr, ptr %7, align 8
  %9 = load ptr, ptr %3, align 8
  %10 = ptrtoint ptr %8 to i64
  %11 = ptrtoint ptr %9 to i64
  %12 = sub i64 %10, %11
  %13 = sdiv exact i64 %12, 72
  %.not.i.i.i = icmp ugt i64 %13, %6
  br i1 %.not.i.i.i, label %_ZNK4pkpy8Compiler4currEv.exit, label %14

14:                                               ; preds = %2
  tail call void (ptr, ...) @_ZSt24__throw_out_of_range_fmtPKcz(ptr noundef nonnull @.str.106, i64 noundef %6, i64 noundef %13) #35
  unreachable

_ZNK4pkpy8Compiler4currEv.exit:                   ; preds = %2
  %15 = getelementptr inbounds %"struct.pkpy::Token", ptr %9, i64 %6
  %16 = load i8, ptr %15, align 8
  %17 = zext i8 %16 to i64
  %18 = getelementptr inbounds nuw [95 x %"struct.pkpy::PrattRule"], ptr @_ZN4pkpy8Compiler5rulesE, i64 0, i64 %17
  %.unpack = load i64, ptr %18, align 8
  %.not = icmp eq i64 %.unpack, 0
  %brmerge = or i1 %1, %.not
  %not..not = xor i1 %.not, true
  br i1 %brmerge, label %35, label %_ZNK4pkpy8Compiler4currEv.exit6

_ZNK4pkpy8Compiler4currEv.exit6:                  ; preds = %_ZNK4pkpy8Compiler4currEv.exit, %33
  %indvars.iv.i = phi i64 [ %indvars.iv.next.i, %33 ], [ 0, %_ZNK4pkpy8Compiler4currEv.exit ]
  %19 = getelementptr inbounds nuw [95 x ptr], ptr @_ZN4pkpyL7kTokensE, i64 0, i64 %indvars.iv.i
  %20 = load ptr, ptr %19, align 8
  %21 = load i8, ptr %20, align 1
  %.not20.i = icmp eq i8 %21, 0
  br i1 %.not20.i, label %.critedge.i, label %.lr.ph.i

.lr.ph.i:                                         ; preds = %_ZNK4pkpy8Compiler4currEv.exit6, %25
  %22 = phi i8 [ %28, %25 ], [ %21, %_ZNK4pkpy8Compiler4currEv.exit6 ]
  %.022.i = phi ptr [ %27, %25 ], [ @.str.10, %_ZNK4pkpy8Compiler4currEv.exit6 ]
  %.01321.i = phi ptr [ %26, %25 ], [ %20, %_ZNK4pkpy8Compiler4currEv.exit6 ]
  %23 = load i8, ptr %.022.i, align 1
  %24 = icmp eq i8 %22, %23
  br i1 %24, label %25, label %.critedge.i

25:                                               ; preds = %.lr.ph.i
  %26 = getelementptr inbounds nuw i8, ptr %.01321.i, i64 1
  %27 = getelementptr inbounds nuw i8, ptr %.022.i, i64 1
  %28 = load i8, ptr %26, align 1
  %.not.i = icmp eq i8 %28, 0
  br i1 %.not.i, label %.critedge.i, label %.lr.ph.i, !llvm.loop !15

.critedge.i:                                      ; preds = %25, %.lr.ph.i, %_ZNK4pkpy8Compiler4currEv.exit6
  %.0.lcssa.i = phi ptr [ @.str.10, %_ZNK4pkpy8Compiler4currEv.exit6 ], [ %27, %25 ], [ %.022.i, %.lr.ph.i ]
  %.lcssa.i = phi i8 [ 0, %_ZNK4pkpy8Compiler4currEv.exit6 ], [ 0, %25 ], [ %22, %.lr.ph.i ]
  %29 = load i8, ptr %.0.lcssa.i, align 1
  %30 = icmp eq i8 %.lcssa.i, %29
  br i1 %30, label %31, label %33

31:                                               ; preds = %.critedge.i
  %32 = trunc i64 %indvars.iv.i to i8
  br label %_ZN4pkpy2TKEPKc.exit

33:                                               ; preds = %.critedge.i
  %indvars.iv.next.i = add nuw nsw i64 %indvars.iv.i, 1
  %exitcond.not.i = icmp eq i64 %indvars.iv.next.i, 95
  br i1 %exitcond.not.i, label %_ZN4pkpy2TKEPKc.exit, label %_ZNK4pkpy8Compiler4currEv.exit6, !llvm.loop !16

_ZN4pkpy2TKEPKc.exit:                             ; preds = %33, %31
  %.015.i = phi i8 [ %32, %31 ], [ -1, %33 ]
  %34 = icmp ne i8 %16, %.015.i
  br label %35

35:                                               ; preds = %_ZNK4pkpy8Compiler4currEv.exit, %_ZN4pkpy2TKEPKc.exit
  %36 = phi i1 [ %not..not, %_ZNK4pkpy8Compiler4currEv.exit ], [ %34, %_ZN4pkpy2TKEPKc.exit ]
  ret i1 %36
}